target datalayout = "e-m:e-p270:32:32-p271:32:32-p272:64:64-i64:64-i128:128-f80:128-n8:16:32:64-S128"
target triple = "x86_64-pc-linux-gnu"

%struct.curltime = type { i64, i32 }
%struct.Curl_easy = type { i32, i64, i64, ptr, %struct.Curl_llist_node, %struct.Curl_llist_node, i32, i32, %struct.Curl_message, %struct.easy_pollset, %struct.Names, ptr, ptr, ptr, ptr, %struct.SingleRequest, %struct.UserDefined, ptr, ptr, ptr, %struct.Progress, %struct.UrlState, ptr, %struct.PureInfo, %struct.curl_tlssessioninfo }
%struct.Curl_llist_node = type { ptr, ptr, ptr, ptr }
%struct.Curl_message = type { %struct.Curl_llist_node, %struct.CURLMsg }
%struct.CURLMsg = type { i32, ptr, %union.anon }
%union.anon = type { ptr }
%struct.easy_pollset = type { [5 x i32], i32, [5 x i8] }
%struct.Names = type { ptr, i32 }
%struct.SingleRequest = type <{ i64, i64, i64, i64, %struct.curltime, i32, i32, i32, i32, i64, i32, i32, i8, i8, [2 x i8], i32, ptr, ptr, %struct.bufq, i64, i64, ptr, ptr, %union.anon.0, ptr, i8, i32, [3 x i8] }>
%struct.bufq = type { ptr, ptr, ptr, ptr, i64, i64, i64, i32 }
%union.anon.0 = type { ptr }
%struct.UserDefined = type <{ ptr, ptr, ptr, ptr, ptr, ptr, i64, i64, i64, ptr, ptr, i64, ptr, ptr, ptr, ptr, ptr, ptr, ptr, ptr, ptr, ptr, ptr, ptr, ptr, ptr, ptr, ptr, ptr, ptr, ptr, ptr, ptr, ptr, ptr, i64, i64, i64, i64, i64, i64, i64, i64, i64, ptr, ptr, %struct.curl_mimepart, ptr, ptr, ptr, i64, %struct.ssl_config_data, %struct.ssl_config_data, ptr, i16, i8, i8, %struct.ssl_general_config, i32, i32, i32, [4 x i8], ptr, ptr, i64, i32, i8, i8, i8, i8, ptr, ptr, ptr, i32, [4 x i8], [74 x ptr], [8 x ptr], i32, i32, i32, [4 x i8], ptr, i32, [4 x i8], ptr, ptr, ptr, ptr, ptr, i32, i32, i32, i32, i32, i32, i32, i32, i64, ptr, ptr, i64, ptr, i64, ptr, ptr, ptr, ptr, i32, i16, i16, i16, i8, i8, i8, i8, i8, i8, i8, i8, i64, [6 x i8] }>
%struct.curl_mimepart = type { ptr, ptr, i32, i32, ptr, ptr, ptr, ptr, ptr, ptr, ptr, ptr, ptr, ptr, ptr, i64, %struct.mime_state, ptr, %struct.mime_encoder_state, i64 }
%struct.mime_state = type { i32, ptr, i64 }
%struct.mime_encoder_state = type { i64, i64, i64, [256 x i8] }
%struct.ssl_config_data = type { %struct.ssl_primary_config, i64, ptr, ptr, ptr, ptr, ptr, ptr, ptr, i16 }
%struct.ssl_primary_config = type { ptr, ptr, ptr, ptr, ptr, ptr, ptr, ptr, ptr, ptr, ptr, ptr, ptr, ptr, i8, i32, i8, i8 }
%struct.ssl_general_config = type { i32 }
%struct.Progress = type { i64, %struct.pgrs_dir, %struct.pgrs_dir, i64, i64, i32, i32, i64, i64, i64, i64, i64, i64, i64, i64, i64, %struct.curltime, %struct.curltime, %struct.curltime, %struct.curltime, %struct.curltime, [6 x i64], [6 x %struct.curltime], i32, i8 }
%struct.pgrs_dir = type { i64, i64, i64, %struct.pgrs_measure }
%struct.pgrs_measure = type { %struct.curltime, i64 }
%struct.UrlState = type { %struct.curltime, i64, i64, %struct.dynbuf, ptr, i64, ptr, i32, i32, i32, ptr, i32, i64, i32, ptr, %struct.digestdata, %struct.digestdata, %struct.auth, %struct.auth, %struct.Curl_async, ptr, i8, %struct.curltime, %struct.Curl_tree, %struct.Curl_llist, [15 x %struct.time_node], ptr, ptr, i64, i64, i64, i64, [32 x i8], i64, ptr, ptr, ptr, %struct.urlpieces, ptr, ptr, ptr, ptr, ptr, i64, %struct.dynbuf, %struct.Curl_llist, [2 x %struct.curl_header], ptr, i32, ptr, ptr, %struct.store_netrc, %struct.dynamically_allocated_data, i8, i8, i8, i8, i32 }
%struct.digestdata = type { ptr, ptr, ptr, ptr, ptr, ptr, i32, i8, i8 }
%struct.auth = type { i64, i64, i64, i8 }
%struct.Curl_async = type { ptr, ptr, ptr, ptr, i32, i32, i8 }
%struct.Curl_tree = type { ptr, ptr, ptr, ptr, %struct.curltime, ptr }
%struct.time_node = type { %struct.Curl_llist_node, %struct.curltime, i32 }
%struct.urlpieces = type { ptr, ptr, ptr, ptr, ptr, ptr, ptr, ptr }
%struct.dynbuf = type { ptr, i64, i64, i64 }
%struct.Curl_llist = type { ptr, ptr, ptr, i64 }
%struct.curl_header = type { ptr, ptr, i64, i64, i32, ptr }
%struct.store_netrc = type { %struct.dynbuf, ptr, i8 }
%struct.dynamically_allocated_data = type { ptr, ptr, ptr, ptr, ptr, ptr, ptr, ptr, ptr, ptr, ptr, ptr, ptr, ptr }
%struct.PureInfo = type { i32, i32, i32, i64, i64, i64, i64, i64, i64, i64, ptr, ptr, i64, i32, %struct.ip_quadruple, i32, ptr, i32, %struct.curl_certinfo, i32, i8 }
%struct.ip_quadruple = type { [46 x i8], [46 x i8], i32, i32 }
%struct.curl_certinfo = type { i32, ptr }
%struct.curl_tlssessioninfo = type { i32, ptr }
%struct.connectdata = type { %struct.Curl_llist_node, ptr, ptr, i64, ptr, i64, ptr, ptr, %struct.hostname, ptr, ptr, %struct.hostname, %struct.proxy_info, %struct.proxy_info, %struct.ip_quadruple, %struct.ip_quadruple, ptr, ptr, ptr, ptr, ptr, %struct.curltime, %struct.curltime, %struct.curltime, [2 x i32], [2 x ptr], [2 x ptr], [2 x ptr], %struct.anon, %struct.easy_pollset, %struct.ssl_primary_config, %struct.ssl_primary_config, %struct.ConnectBits, ptr, ptr, %struct.curltime, i32, i32, %struct.Curl_llist, i32, i32, %struct.ntlmdata, %struct.ntlmdata, %union.anon.1, ptr, ptr, i16, i32, i32, i32, i32, i16, i16, i8, i8, i8, i8, i8, i8, i8 }
%struct.hostname = type { ptr, ptr, ptr, ptr }
%struct.proxy_info = type { %struct.hostname, i32, i8, ptr, ptr }
%struct.anon = type { [2 x %struct.curltime], i32 }
%struct.ConnectBits = type { i64 }
%struct.ntlmdata = type { i32, [8 x i8], i32, ptr }
%union.anon.1 = type { %struct.ftp_conn }
%struct.ftp_conn = type { %struct.pingpong, ptr, ptr, ptr, ptr, ptr, ptr, ptr, i8, i64, ptr, i64, i32, i32, i32, i32, i32, i16, i8, i8, i8, i8, i8 }
%struct.pingpong = type { i64, i8, ptr, i64, i64, %struct.curltime, i64, %struct.dynbuf, %struct.dynbuf, i64, i64, ptr, ptr }
%struct.TELNET = type { i32, i32, [256 x i32], [256 x i32], [256 x i32], [256 x i32], [256 x i32], [256 x i32], [256 x i32], ptr, ptr, i16, i16, i32, ptr, %struct.dynbuf, [512 x i8], ptr, ptr }
%struct.curl_slist = type { ptr, ptr }

@.str.77 = private unnamed_addr constant [25 x i8] c"Sending data failed (%d)\00", align 1
@.str.100 = private unnamed_addr constant [15 x i8] c"%c%c%c%c%s%c%c\00", align 1
@.str.101 = private unnamed_addr constant [9 x i8] c"%c%c%c%c\00", align 1
@.str.102 = private unnamed_addr constant [5 x i8] c"%c%s\00", align 1
@.str.103 = private unnamed_addr constant [11 x i8] c"%c%.*s%c%s\00", align 1
@.str.104 = private unnamed_addr constant [5 x i8] c"%c%c\00", align 1

; Function Attrs: nounwind uwtable
define internal void @suboption(ptr noundef %0) #0 {
  %2 = alloca ptr, align 8
  %3 = alloca ptr, align 8
  %4 = alloca [2048 x i8], align 16
  %5 = alloca i64, align 8
  %6 = alloca i64, align 8
  %7 = alloca i32, align 4
  %8 = alloca ptr, align 8
  %9 = alloca ptr, align 8
  %10 = alloca i64, align 8
  %11 = alloca ptr, align 8
  %12 = alloca i64, align 8
  store ptr %0, ptr %2, align 8, !tbaa !3
  call void @llvm.lifetime.start.p0(i64 8, ptr %3) #9
  call void @llvm.lifetime.start.p0(i64 2048, ptr %4) #9
  call void @llvm.lifetime.start.p0(i64 8, ptr %5) #9
  call void @llvm.lifetime.start.p0(i64 8, ptr %6) #9
  call void @llvm.lifetime.start.p0(i64 4, ptr %7) #9
  call void @llvm.lifetime.start.p0(i64 8, ptr %8) #9
  %13 = load ptr, ptr %2, align 8, !tbaa !3
  %14 = getelementptr inbounds nuw %struct.Curl_easy, ptr %13, i32 0, i32 15
  %15 = getelementptr inbounds nuw %struct.SingleRequest, ptr %14, i32 0, i32 23
  %16 = load ptr, ptr %15, align 8, !tbaa !84
  store ptr %16, ptr %8, align 8, !tbaa !85
  call void @llvm.lifetime.start.p0(i64 8, ptr %9) #9
  %17 = load ptr, ptr %2, align 8, !tbaa !3
  %18 = getelementptr inbounds nuw %struct.Curl_easy, ptr %17, i32 0, i32 3
  %19 = load ptr, ptr %18, align 8, !tbaa !10
  store ptr %19, ptr %9, align 8, !tbaa !79
  %20 = load ptr, ptr %2, align 8, !tbaa !3
  %21 = load ptr, ptr %8, align 8, !tbaa !85
  %22 = getelementptr inbounds nuw %struct.TELNET, ptr %21, i32 0, i32 16
  %23 = getelementptr inbounds [512 x i8], ptr %22, i64 0, i64 0
  %24 = load ptr, ptr %8, align 8, !tbaa !85
  %25 = getelementptr inbounds nuw %struct.TELNET, ptr %24, i32 0, i32 18
  %26 = load ptr, ptr %25, align 8, !tbaa !128
  %27 = load ptr, ptr %8, align 8, !tbaa !85
  %28 = getelementptr inbounds nuw %struct.TELNET, ptr %27, i32 0, i32 17
  %29 = load ptr, ptr %28, align 8, !tbaa !106
  %30 = ptrtoint ptr %26 to i64
  %31 = ptrtoint ptr %29 to i64
  %32 = sub i64 %30, %31
  %33 = add nsw i64 %32, 2
  call void @printsub(ptr noundef %20, i32 noundef 60, ptr noundef %23, i64 noundef %33)
  %34 = load ptr, ptr %8, align 8, !tbaa !85
  %35 = getelementptr inbounds nuw %struct.TELNET, ptr %34, i32 0, i32 17
  %36 = load ptr, ptr %35, align 8, !tbaa !106
  %37 = getelementptr inbounds nuw i8, ptr %36, i32 1
  store ptr %37, ptr %35, align 8, !tbaa !106
  %38 = load i8, ptr %36, align 1, !tbaa !84
  %39 = zext i8 %38 to i32
  %40 = and i32 %39, 255
  switch i32 %40, label %197 [
    i32 24, label %41
    i32 35, label %72
    i32 39, label %103
  ]

41:                                               ; preds = %1
  %42 = load ptr, ptr %8, align 8, !tbaa !85
  %43 = getelementptr inbounds nuw %struct.TELNET, ptr %42, i32 0, i32 9
  %44 = load ptr, ptr %43, align 8, !tbaa !122
  %45 = call i64 @strlen(ptr noundef %44) #10
  %46 = add i64 %45, 4
  %47 = add i64 %46, 2
  store i64 %47, ptr %6, align 8, !tbaa !81
  %48 = getelementptr inbounds [2048 x i8], ptr %4, i64 0, i64 0
  %49 = load ptr, ptr %8, align 8, !tbaa !85
  %50 = getelementptr inbounds nuw %struct.TELNET, ptr %49, i32 0, i32 9
  %51 = load ptr, ptr %50, align 8, !tbaa !122
  %52 = call i32 (ptr, i64, ptr, ...) @curl_msnprintf(ptr noundef %48, i64 noundef 2048, ptr noundef @.str.100, i32 noundef 255, i32 noundef 250, i32 noundef 24, i32 noundef 0, ptr noundef %51, i32 noundef 255, i32 noundef 240)
  %53 = load ptr, ptr %9, align 8, !tbaa !79
  %54 = getelementptr inbounds nuw %struct.connectdata, ptr %53, i32 0, i32 24
  %55 = getelementptr inbounds [2 x i32], ptr %54, i64 0, i64 0
  %56 = load i32, ptr %55, align 8, !tbaa !80
  %57 = getelementptr inbounds [2048 x i8], ptr %4, i64 0, i64 0
  %58 = load i64, ptr %6, align 8, !tbaa !81
  %59 = call i64 @send(i32 noundef %56, ptr noundef %57, i64 noundef %58, i32 noundef 16384)
  store i64 %59, ptr %5, align 8, !tbaa !81
  %60 = load i64, ptr %5, align 8, !tbaa !81
  %61 = icmp slt i64 %60, 0
  br i1 %61, label %62, label %67

62:                                               ; preds = %41
  %63 = call ptr @__errno_location() #11
  %64 = load i32, ptr %63, align 4, !tbaa !80
  store i32 %64, ptr %7, align 4, !tbaa !80
  %65 = load ptr, ptr %2, align 8, !tbaa !3
  %66 = load i32, ptr %7, align 4, !tbaa !80
  call void (ptr, ptr, ...) @Curl_failf(ptr noundef %65, ptr noundef @.str.77, i32 noundef %66)
  br label %67

67:                                               ; preds = %62, %41
  %68 = load ptr, ptr %2, align 8, !tbaa !3
  %69 = getelementptr inbounds [2048 x i8], ptr %4, i64 0, i64 2
  %70 = load i64, ptr %6, align 8, !tbaa !81
  %71 = sub i64 %70, 2
  call void @printsub(ptr noundef %68, i32 noundef 62, ptr noundef %69, i64 noundef %71)
  br label %197

72:                                               ; preds = %1
  %73 = load ptr, ptr %8, align 8, !tbaa !85
  %74 = getelementptr inbounds nuw %struct.TELNET, ptr %73, i32 0, i32 10
  %75 = load ptr, ptr %74, align 8, !tbaa !123
  %76 = call i64 @strlen(ptr noundef %75) #10
  %77 = add i64 %76, 4
  %78 = add i64 %77, 2
  store i64 %78, ptr %6, align 8, !tbaa !81
  %79 = getelementptr inbounds [2048 x i8], ptr %4, i64 0, i64 0
  %80 = load ptr, ptr %8, align 8, !tbaa !85
  %81 = getelementptr inbounds nuw %struct.TELNET, ptr %80, i32 0, i32 10
  %82 = load ptr, ptr %81, align 8, !tbaa !123
  %83 = call i32 (ptr, i64, ptr, ...) @curl_msnprintf(ptr noundef %79, i64 noundef 2048, ptr noundef @.str.100, i32 noundef 255, i32 noundef 250, i32 noundef 35, i32 noundef 0, ptr noundef %82, i32 noundef 255, i32 noundef 240)
  %84 = load ptr, ptr %9, align 8, !tbaa !79
  %85 = getelementptr inbounds nuw %struct.connectdata, ptr %84, i32 0, i32 24
  %86 = getelementptr inbounds [2 x i32], ptr %85, i64 0, i64 0
  %87 = load i32, ptr %86, align 8, !tbaa !80
  %88 = getelementptr inbounds [2048 x i8], ptr %4, i64 0, i64 0
  %89 = load i64, ptr %6, align 8, !tbaa !81
  %90 = call i64 @send(i32 noundef %87, ptr noundef %88, i64 noundef %89, i32 noundef 16384)
  store i64 %90, ptr %5, align 8, !tbaa !81
  %91 = load i64, ptr %5, align 8, !tbaa !81
  %92 = icmp slt i64 %91, 0
  br i1 %92, label %93, label %98

93:                                               ; preds = %72
  %94 = call ptr @__errno_location() #11
  %95 = load i32, ptr %94, align 4, !tbaa !80
  store i32 %95, ptr %7, align 4, !tbaa !80
  %96 = load ptr, ptr %2, align 8, !tbaa !3
  %97 = load i32, ptr %7, align 4, !tbaa !80
  call void (ptr, ptr, ...) @Curl_failf(ptr noundef %96, ptr noundef @.str.77, i32 noundef %97)
  br label %98

98:                                               ; preds = %93, %72
  %99 = load ptr, ptr %2, align 8, !tbaa !3
  %100 = getelementptr inbounds [2048 x i8], ptr %4, i64 0, i64 2
  %101 = load i64, ptr %6, align 8, !tbaa !81
  %102 = sub i64 %101, 2
  call void @printsub(ptr noundef %99, i32 noundef 62, ptr noundef %100, i64 noundef %102)
  br label %197

103:                                              ; preds = %1
  %104 = getelementptr inbounds [2048 x i8], ptr %4, i64 0, i64 0
  %105 = call i32 (ptr, i64, ptr, ...) @curl_msnprintf(ptr noundef %104, i64 noundef 2048, ptr noundef @.str.101, i32 noundef 255, i32 noundef 250, i32 noundef 39, i32 noundef 0)
  store i64 4, ptr %6, align 8, !tbaa !81
  %106 = load ptr, ptr %8, align 8, !tbaa !85
  %107 = getelementptr inbounds nuw %struct.TELNET, ptr %106, i32 0, i32 14
  %108 = load ptr, ptr %107, align 8, !tbaa !103
  store ptr %108, ptr %3, align 8, !tbaa !117
  br label %109

109:                                              ; preds = %166, %103
  %110 = load ptr, ptr %3, align 8, !tbaa !117
  %111 = icmp ne ptr %110, null
  br i1 %111, label %112, label %170

112:                                              ; preds = %109
  call void @llvm.lifetime.start.p0(i64 8, ptr %10) #9
  %113 = load ptr, ptr %3, align 8, !tbaa !117
  %114 = getelementptr inbounds nuw %struct.curl_slist, ptr %113, i32 0, i32 0
  %115 = load ptr, ptr %114, align 8, !tbaa !119
  %116 = call i64 @strlen(ptr noundef %115) #10
  %117 = add i64 %116, 1
  store i64 %117, ptr %10, align 8, !tbaa !81
  %118 = load i64, ptr %6, align 8, !tbaa !81
  %119 = load i64, ptr %10, align 8, !tbaa !81
  %120 = add i64 %118, %119
  %121 = icmp ult i64 %120, 2042
  br i1 %121, label %122, label %165

122:                                              ; preds = %112
  call void @llvm.lifetime.start.p0(i64 8, ptr %11) #9
  %123 = load ptr, ptr %3, align 8, !tbaa !117
  %124 = getelementptr inbounds nuw %struct.curl_slist, ptr %123, i32 0, i32 0
  %125 = load ptr, ptr %124, align 8, !tbaa !119
  %126 = call ptr @strchr(ptr noundef %125, i32 noundef 44) #10
  store ptr %126, ptr %11, align 8, !tbaa !121
  %127 = load ptr, ptr %11, align 8, !tbaa !121
  %128 = icmp ne ptr %127, null
  br i1 %128, label %141, label %129

129:                                              ; preds = %122
  %130 = load i64, ptr %6, align 8, !tbaa !81
  %131 = getelementptr inbounds nuw [2048 x i8], ptr %4, i64 0, i64 %130
  %132 = load i64, ptr %6, align 8, !tbaa !81
  %133 = sub i64 2048, %132
  %134 = load ptr, ptr %3, align 8, !tbaa !117
  %135 = getelementptr inbounds nuw %struct.curl_slist, ptr %134, i32 0, i32 0
  %136 = load ptr, ptr %135, align 8, !tbaa !119
  %137 = call i32 (ptr, i64, ptr, ...) @curl_msnprintf(ptr noundef %131, i64 noundef %133, ptr noundef @.str.102, i32 noundef 0, ptr noundef %136)
  %138 = sext i32 %137 to i64
  %139 = load i64, ptr %6, align 8, !tbaa !81
  %140 = add i64 %139, %138
  store i64 %140, ptr %6, align 8, !tbaa !81
  br label %164

141:                                              ; preds = %122
  call void @llvm.lifetime.start.p0(i64 8, ptr %12) #9
  %142 = load ptr, ptr %11, align 8, !tbaa !121
  %143 = load ptr, ptr %3, align 8, !tbaa !117
  %144 = getelementptr inbounds nuw %struct.curl_slist, ptr %143, i32 0, i32 0
  %145 = load ptr, ptr %144, align 8, !tbaa !119
  %146 = ptrtoint ptr %142 to i64
  %147 = ptrtoint ptr %145 to i64
  %148 = sub i64 %146, %147
  store i64 %148, ptr %12, align 8, !tbaa !81
  %149 = load i64, ptr %6, align 8, !tbaa !81
  %150 = getelementptr inbounds nuw [2048 x i8], ptr %4, i64 0, i64 %149
  %151 = load i64, ptr %6, align 8, !tbaa !81
  %152 = sub i64 2048, %151
  %153 = load i64, ptr %12, align 8, !tbaa !81
  %154 = trunc i64 %153 to i32
  %155 = load ptr, ptr %3, align 8, !tbaa !117
  %156 = getelementptr inbounds nuw %struct.curl_slist, ptr %155, i32 0, i32 0
  %157 = load ptr, ptr %156, align 8, !tbaa !119
  %158 = load ptr, ptr %11, align 8, !tbaa !121
  %159 = getelementptr inbounds nuw i8, ptr %158, i32 1
  store ptr %159, ptr %11, align 8, !tbaa !121
  %160 = call i32 (ptr, i64, ptr, ...) @curl_msnprintf(ptr noundef %150, i64 noundef %152, ptr noundef @.str.103, i32 noundef 0, i32 noundef %154, ptr noundef %157, i32 noundef 1, ptr noundef %159)
  %161 = sext i32 %160 to i64
  %162 = load i64, ptr %6, align 8, !tbaa !81
  %163 = add i64 %162, %161
  store i64 %163, ptr %6, align 8, !tbaa !81
  call void @llvm.lifetime.end.p0(i64 8, ptr %12) #9
  br label %164

164:                                              ; preds = %141, %129
  call void @llvm.lifetime.end.p0(i64 8, ptr %11) #9
  br label %165

165:                                              ; preds = %164, %112
  call void @llvm.lifetime.end.p0(i64 8, ptr %10) #9
  br label %166

166:                                              ; preds = %165
  %167 = load ptr, ptr %3, align 8, !tbaa !117
  %168 = getelementptr inbounds nuw %struct.curl_slist, ptr %167, i32 0, i32 1
  %169 = load ptr, ptr %168, align 8, !tbaa !126
  store ptr %169, ptr %3, align 8, !tbaa !117
  br label %109, !llvm.loop !137

170:                                              ; preds = %109
  %171 = load i64, ptr %6, align 8, !tbaa !81
  %172 = getelementptr inbounds nuw [2048 x i8], ptr %4, i64 0, i64 %171
  %173 = load i64, ptr %6, align 8, !tbaa !81
  %174 = sub i64 2048, %173
  %175 = call i32 (ptr, i64, ptr, ...) @curl_msnprintf(ptr noundef %172, i64 noundef %174, ptr noundef @.str.104, i32 noundef 255, i32 noundef 240)
  %176 = load i64, ptr %6, align 8, !tbaa !81
  %177 = add i64 %176, 2
  store i64 %177, ptr %6, align 8, !tbaa !81
  %178 = load ptr, ptr %9, align 8, !tbaa !79
  %179 = getelementptr inbounds nuw %struct.connectdata, ptr %178, i32 0, i32 24
  %180 = getelementptr inbounds [2 x i32], ptr %179, i64 0, i64 0
  %181 = load i32, ptr %180, align 8, !tbaa !80
  %182 = getelementptr inbounds [2048 x i8], ptr %4, i64 0, i64 0
  %183 = load i64, ptr %6, align 8, !tbaa !81
  %184 = call i64 @send(i32 noundef %181, ptr noundef %182, i64 noundef %183, i32 noundef 16384)
  store i64 %184, ptr %5, align 8, !tbaa !81
  %185 = load i64, ptr %5, align 8, !tbaa !81
  %186 = icmp slt i64 %185, 0
  br i1 %186, label %187, label %192

187:                                              ; preds = %170
  %188 = call ptr @__errno_location() #11
  %189 = load i32, ptr %188, align 4, !tbaa !80
  store i32 %189, ptr %7, align 4, !tbaa !80
  %190 = load ptr, ptr %2, align 8, !tbaa !3
  %191 = load i32, ptr %7, align 4, !tbaa !80
  call void (ptr, ptr, ...) @Curl_failf(ptr noundef %190, ptr noundef @.str.77, i32 noundef %191)
  br label %192

192:                                              ; preds = %187, %170
  %193 = load ptr, ptr %2, align 8, !tbaa !3
  %194 = getelementptr inbounds [2048 x i8], ptr %4, i64 0, i64 2
  %195 = load i64, ptr %6, align 8, !tbaa !81
  %196 = sub i64 %195, 2
  call void @printsub(ptr noundef %193, i32 noundef 62, ptr noundef %194, i64 noundef %196)
  br label %197

197:                                              ; preds = %1, %192, %98, %67
  call void @llvm.lifetime.end.p0(i64 8, ptr %9) #9
  call void @llvm.lifetime.end.p0(i64 8, ptr %8) #9
  call void @llvm.lifetime.end.p0(i64 4, ptr %7) #9
  call void @llvm.lifetime.end.p0(i64 8, ptr %6) #9
  call void @llvm.lifetime.end.p0(i64 8, ptr %5) #9
  call void @llvm.lifetime.end.p0(i64 2048, ptr %4) #9
  call void @llvm.lifetime.end.p0(i64 8, ptr %3) #9
  ret void
}