; Function Attrs: nounwind uwtable
define internal fastcc void @suboption(ptr noundef %0) unnamed_addr #0 {
  %2 = alloca [2048 x i8], align 16
  call void @llvm.lifetime.start.p0(i64 2048, ptr nonnull %2) #9
  %3 = getelementptr inbounds nuw i8, ptr %0, i64 440
  %4 = load ptr, ptr %3, align 8, !tbaa !79
  %5 = getelementptr inbounds nuw i8, ptr %0, i64 24
  %6 = load ptr, ptr %5, align 8, !tbaa !3
  %7 = getelementptr inbounds nuw i8, ptr %4, i64 7240
  %8 = getelementptr inbounds nuw i8, ptr %4, i64 7760
  %9 = load ptr, ptr %8, align 8, !tbaa !116
  %10 = getelementptr inbounds nuw i8, ptr %4, i64 7752
  %11 = load ptr, ptr %10, align 8, !tbaa !82
  %12 = ptrtoint ptr %9 to i64
  %13 = ptrtoint ptr %11 to i64
  %14 = add i64 %12, 2
  %15 = sub i64 %14, %13
  tail call fastcc void @printsub(ptr noundef %0, i32 noundef 60, ptr noundef nonnull %7, i64 noundef %15)
  %16 = load ptr, ptr %10, align 8, !tbaa !82
  %17 = getelementptr inbounds nuw i8, ptr %16, i64 1
  store ptr %17, ptr %10, align 8, !tbaa !82
  %18 = load i8, ptr %16, align 1, !tbaa !79
  switch i8 %18, label %78 [
    i8 24, label %19
    i8 35, label %30
    i8 39, label %41
  ]

19:                                               ; preds = %1
  %20 = getelementptr inbounds nuw i8, ptr %4, i64 7176
  %21 = load ptr, ptr %20, align 8, !tbaa !99
  %22 = tail call i64 @strlen(ptr noundef nonnull dereferenceable(1) %21) #10
  %23 = add i64 %22, 4
  %24 = add i64 %22, 6
  %25 = call i32 (ptr, i64, ptr, ...) @curl_msnprintf(ptr noundef nonnull %2, i64 noundef 2048, ptr noundef nonnull @.str.100, i32 noundef 255, i32 noundef 250, i32 noundef 24, i32 noundef 0, ptr noundef nonnull %21, i32 noundef 255, i32 noundef 240) #9
  %26 = getelementptr inbounds nuw i8, ptr %6, i64 568
  %27 = load i32, ptr %26, align 8, !tbaa !75
  %28 = call i64 @send(i32 noundef %27, ptr noundef nonnull %2, i64 noundef %24, i32 noundef 16384) #9
  %29 = icmp slt i64 %28, 0
  br i1 %29, label %.sink.split.sink.split, label %.sink.split

30:                                               ; preds = %1
  %31 = getelementptr inbounds nuw i8, ptr %4, i64 7184
  %32 = load ptr, ptr %31, align 8, !tbaa !100
  %33 = tail call i64 @strlen(ptr noundef nonnull dereferenceable(1) %32) #10
  %34 = add i64 %33, 4
  %35 = add i64 %33, 6
  %36 = call i32 (ptr, i64, ptr, ...) @curl_msnprintf(ptr noundef nonnull %2, i64 noundef 2048, ptr noundef nonnull @.str.100, i32 noundef 255, i32 noundef 250, i32 noundef 35, i32 noundef 0, ptr noundef nonnull %32, i32 noundef 255, i32 noundef 240) #9
  %37 = getelementptr inbounds nuw i8, ptr %6, i64 568
  %38 = load i32, ptr %37, align 8, !tbaa !75
  %39 = call i64 @send(i32 noundef %38, ptr noundef nonnull %2, i64 noundef %35, i32 noundef 16384) #9
  %40 = icmp slt i64 %39, 0
  br i1 %40, label %.sink.split.sink.split, label %.sink.split

41:                                               ; preds = %1
  %42 = call i32 (ptr, i64, ptr, ...) @curl_msnprintf(ptr noundef nonnull %2, i64 noundef 2048, ptr noundef nonnull @.str.101, i32 noundef 255, i32 noundef 250, i32 noundef 39, i32 noundef 0) #9
  %43 = getelementptr inbounds nuw i8, ptr %4, i64 7200
  %.057 = load ptr, ptr %43, align 8, !tbaa !96
  %.not58 = icmp eq ptr %.057, null
  br i1 %.not58, label %._crit_edge, label %.lr.ph

.lr.ph:                                           ; preds = %41, %65
  %.060 = phi ptr [ %.0, %65 ], [ %.057, %41 ]
  %.05459 = phi i64 [ %.1, %65 ], [ 4, %41 ]
  %44 = load ptr, ptr %.060, align 8, !tbaa !97
  %45 = call i64 @strlen(ptr noundef nonnull dereferenceable(1) %44) #10
  %46 = add i64 %.05459, 1
  %47 = add i64 %46, %45
  %48 = icmp ult i64 %47, 2042
  br i1 %48, label %49, label %65

49:                                               ; preds = %.lr.ph
  %50 = call ptr @strchr(ptr noundef nonnull dereferenceable(1) %44, i32 noundef 44) #10
  %.not56 = icmp eq ptr %50, null
  br i1 %.not56, label %51, label %55

51:                                               ; preds = %49
  %52 = getelementptr inbounds nuw [2048 x i8], ptr %2, i64 0, i64 %.05459
  %53 = sub i64 2048, %.05459
  %54 = call i32 (ptr, i64, ptr, ...) @curl_msnprintf(ptr noundef nonnull %52, i64 noundef %53, ptr noundef nonnull @.str.102, i32 noundef 0, ptr noundef nonnull %44) #9
  br label %64

55:                                               ; preds = %49
  %56 = ptrtoint ptr %50 to i64
  %57 = ptrtoint ptr %44 to i64
  %58 = sub i64 %56, %57
  %59 = getelementptr inbounds nuw [2048 x i8], ptr %2, i64 0, i64 %.05459
  %60 = sub i64 2048, %.05459
  %61 = trunc i64 %58 to i32
  %62 = getelementptr inbounds nuw i8, ptr %50, i64 1
  %63 = call i32 (ptr, i64, ptr, ...) @curl_msnprintf(ptr noundef nonnull %59, i64 noundef %60, ptr noundef nonnull @.str.103, i32 noundef 0, i32 noundef %61, ptr noundef nonnull %44, i32 noundef 1, ptr noundef nonnull %62) #9
  br label %64

64:                                               ; preds = %55, %51
  %.pn.in = phi i32 [ %63, %55 ], [ %54, %51 ]
  %.pn = sext i32 %.pn.in to i64
  %.2 = add i64 %.05459, %.pn
  br label %65

65:                                               ; preds = %64, %.lr.ph
  %.1 = phi i64 [ %.2, %64 ], [ %.05459, %.lr.ph ]
  %66 = getelementptr inbounds nuw i8, ptr %.060, i64 8
  %.0 = load ptr, ptr %66, align 8, !tbaa !96
  %.not = icmp eq ptr %.0, null
  br i1 %.not, label %._crit_edge, label %.lr.ph, !llvm.loop !124

._crit_edge:                                      ; preds = %65, %41
  %.054.lcssa = phi i64 [ 4, %41 ], [ %.1, %65 ]
  %67 = getelementptr inbounds nuw [2048 x i8], ptr %2, i64 0, i64 %.054.lcssa
  %68 = sub i64 2048, %.054.lcssa
  %69 = call i32 (ptr, i64, ptr, ...) @curl_msnprintf(ptr noundef nonnull %67, i64 noundef %68, ptr noundef nonnull @.str.104, i32 noundef 255, i32 noundef 240) #9
  %70 = add i64 %.054.lcssa, 2
  %71 = getelementptr inbounds nuw i8, ptr %6, i64 568
  %72 = load i32, ptr %71, align 8, !tbaa !75
  %73 = call i64 @send(i32 noundef %72, ptr noundef nonnull %2, i64 noundef %70, i32 noundef 16384) #9
  %74 = icmp slt i64 %73, 0
  br i1 %74, label %.sink.split.sink.split, label %.sink.split

.sink.split.sink.split:                           ; preds = %._crit_edge, %30, %19
  %.054.lcssa.sink.ph = phi i64 [ %23, %19 ], [ %34, %30 ], [ %.054.lcssa, %._crit_edge ]
  %75 = tail call ptr @__errno_location() #11
  %76 = load i32, ptr %75, align 4, !tbaa !75
  call void (ptr, ptr, ...) @Curl_failf(ptr noundef %0, ptr noundef nonnull @.str.77, i32 noundef %76) #9
  br label %.sink.split

.sink.split:                                      ; preds = %.sink.split.sink.split, %._crit_edge, %30, %19
  %.054.lcssa.sink = phi i64 [ %23, %19 ], [ %34, %30 ], [ %.054.lcssa, %._crit_edge ], [ %.054.lcssa.sink.ph, %.sink.split.sink.split ]
  %77 = getelementptr inbounds nuw i8, ptr %2, i64 2
  call fastcc void @printsub(ptr noundef %0, i32 noundef 62, ptr noundef nonnull %77, i64 noundef %.054.lcssa.sink)
  br label %78

78:                                               ; preds = %.sink.split, %1
  call void @llvm.lifetime.end.p0(i64 2048, ptr nonnull %2) #9
  ret void
}